Certificate:
    Data:
        Version: 3 (0x2)
        Serial Number:
            17:80:d2:1c:01:71:80:0b:5c:66:94:f7:21:30:0b:ab:df:55:04:a9
        Signature Algorithm: sha256WithRSAEncryption
        Issuer: O = HassOS, CN = HassOS Self-signed Development Certificate
        Validity
            Not Before: Jun 19 12:56:09 2025 GMT
            Not After : Jun 17 12:56:09 2035 GMT
        Subject: O = HassOS, CN = HassOS Self-signed Development Certificate
        Subject Public Key Info:
            Public Key Algorithm: rsaEncryption
                RSA Public-Key: (4096 bit)
                Modulus:
                    00:c7:87:6d:5c:57:5b:38:dd:b3:e1:e6:f3:4f:d6:
                    ca:fb:8e:76:c9:c8:7d:c4:4b:37:95:ba:42:a8:73:
                    9a:40:bd:77:1b:f6:72:52:d9:9f:68:d6:1d:8f:bc:
                    fb:4c:48:fc:28:50:c2:78:f4:34:e8:25:19:e5:b8:
                    4c:ba:ed:a9:e0:67:b3:36:f1:d5:01:fc:0a:b1:a9:
                    bf:74:43:06:d3:b6:d0:3c:c8:d5:98:bf:e4:2f:79:
                    7a:c0:df:c5:d0:fb:a2:89:25:9f:69:e5:bc:e2:14:
                    5c:67:6d:e6:b2:2a:a9:a4:8e:13:7f:cb:28:9c:05:
                    d1:9a:3f:49:10:0a:95:d3:08:b3:78:9e:03:ce:92:
                    e1:bd:f0:34:0e:c3:e6:40:52:19:a8:ff:8f:af:dc:
                    5e:cf:57:53:fd:d9:e6:6c:67:b5:dc:f0:42:5c:c1:
                    29:de:a4:ed:d6:70:d4:e3:49:f4:a7:69:41:99:3f:
                    2f:22:5d:ee:64:30:2c:b2:7e:42:96:6f:60:69:22:
                    51:19:43:b3:29:e2:e5:c2:2d:eb:14:d9:c3:17:46:
                    57:a4:59:78:1f:1e:f7:eb:a0:f7:c3:c4:e4:d8:cb:
                    0c:3e:3b:e8:ee:d9:97:72:69:d3:88:df:b6:74:a4:
                    4d:b2:55:ba:1a:e7:89:71:aa:8d:15:7a:e8:c1:58:
                    18:a1:ff:0c:b5:2b:d2:04:72:7a:a5:dd:51:f8:79:
                    5c:84:09:a4:9d:44:5d:54:b1:be:75:a7:19:ac:f6:
                    29:cf:06:37:c9:ae:a3:9b:7d:40:c2:31:41:26:61:
                    d0:14:c2:64:d5:53:cb:db:05:0c:d0:6c:5e:cf:6d:
                    54:e4:40:06:a0:53:77:29:37:eb:81:58:0c:4a:47:
                    5c:3b:93:68:a2:c8:cf:10:5c:f2:d4:91:ee:d4:f7:
                    ea:29:42:13:ce:2e:42:0c:f9:84:a2:fd:f5:73:3e:
                    a2:f1:a7:c1:8f:b1:41:4d:d3:ca:79:84:f2:9b:5d:
                    c7:63:2b:dc:ea:8d:f9:ed:c5:54:38:8b:de:81:e6:
                    ef:38:79:3e:0f:a3:f2:8d:d8:b8:7b:05:0b:84:ee:
                    d7:55:61:4f:10:87:b3:17:20:d7:2c:18:9c:b2:b5:
                    be:79:d2:ed:90:66:ab:ee:9e:4e:c4:5a:36:4b:04:
                    1a:65:b7:7b:df:2e:d9:a2:c9:c0:9c:fc:92:39:37:
                    a8:30:9a:66:f5:00:29:cc:c6:df:31:8f:f7:34:40:
                    93:8c:ce:96:9e:74:2b:ff:77:16:ba:bc:3a:2a:8c:
                    e6:ad:e0:7a:c0:26:84:a2:1e:03:67:41:99:83:35:
                    d4:d1:45:da:61:fd:58:cb:31:44:5e:23:aa:e3:ff:
                    4b:9e:75
                Exponent: 65537 (0x10001)
        X509v3 extensions:
            X509v3 Subject Key Identifier: 
                D3:E4:5E:70:11:9F:DA:C2:9B:9D:1D:C0:5F:17:FF:EC:AC:B5:CE:CB
            X509v3 Authority Key Identifier: 
                keyid:D3:E4:5E:70:11:9F:DA:C2:9B:9D:1D:C0:5F:17:FF:EC:AC:B5:CE:CB

            X509v3 Basic Constraints: critical
                CA:TRUE
    Signature Algorithm: sha256WithRSAEncryption
         4c:74:bf:5e:bc:60:0b:b7:4c:a4:cd:03:4f:f5:9c:1d:7a:ca:
         69:9e:07:c6:5b:4c:9b:3c:81:0c:3c:4e:f7:47:83:4b:39:1d:
         be:56:33:fb:e0:23:f4:0f:72:57:2c:ac:b0:57:5a:cb:2b:bd:
         65:b2:44:37:30:f8:06:67:15:c3:21:15:34:53:e5:4b:ad:5d:
         59:d9:b8:3d:cb:53:92:4d:e7:80:7f:2a:3e:10:d1:ec:c1:70:
         ca:e3:b5:51:73:89:06:bf:50:ae:83:9e:14:ec:9b:40:97:f6:
         10:7c:21:4b:27:6e:90:fa:64:e1:cc:9c:f5:90:c4:06:ca:5e:
         0b:49:9a:ca:b6:b9:00:b6:0c:e6:9a:ca:ad:fa:d9:8c:f5:24:
         b7:bc:0d:70:ff:b3:78:70:a1:97:83:3e:93:ca:c9:b1:26:c1:
         25:cd:41:96:ca:6f:78:34:39:d4:33:07:c2:bc:20:b0:a0:b6:
         e4:27:a9:64:c6:f0:8b:5d:f4:41:96:32:7a:fa:b3:a8:8f:6e:
         6d:d9:ef:49:63:c3:93:50:f8:89:56:22:1b:78:2c:f2:bf:f8:
         01:a5:17:55:21:33:8d:fb:31:44:4e:41:22:65:4d:79:0d:48:
         4b:5b:07:7d:1c:e8:16:dc:bf:b2:8d:44:ec:bc:d4:0f:27:cc:
         ec:87:a9:86:ec:2b:0c:a6:f4:34:00:e3:45:11:ed:f0:a5:c2:
         16:61:0c:f5:c5:be:fa:de:ef:b2:e0:0e:2f:00:d3:b1:22:bc:
         f9:aa:46:5f:4e:cc:1c:18:11:a7:4f:ba:27:2f:ef:79:92:7c:
         64:62:26:7b:05:7d:fd:19:f8:6f:3a:51:27:8c:ae:27:e3:57:
         3d:26:fa:63:4b:d1:c4:82:6b:57:68:68:3a:cd:ad:62:2b:b7:
         e7:61:39:3a:04:5e:f2:13:3d:1c:ed:b2:35:fc:1f:f4:6a:e5:
         1f:c6:50:03:30:0d:a8:83:91:79:48:68:e9:24:16:88:ea:78:
         10:26:82:c3:c2:60:c5:c5:63:e7:f0:6d:06:25:21:6a:e7:ef:
         8b:30:1e:f7:9b:f5:a4:7d:71:fd:89:76:d9:e7:13:2c:48:de:
         df:1a:18:a8:ee:51:64:24:37:8a:dc:32:94:59:22:38:71:8e:
         a1:8b:dc:2b:46:8c:6c:8a:b8:33:0b:ba:e0:30:ca:50:e4:aa:
         93:e5:68:ff:00:25:ba:97:98:44:c4:ca:00:0a:90:b9:df:15:
         b7:11:41:ed:14:1c:52:d4:fc:73:e7:38:c7:5b:15:11:23:5d:
         5c:19:f5:49:8a:15:e3:bb:9d:3d:c6:12:9a:ed:59:99:bc:f1:
         70:c7:b0:4c:8a:0f:89:e8
-----BEGIN CERTIFICATE-----
MIIFbTCCA1WgAwIBAgIUF4DSHAFxgAtcZpT3ITALq99VBKkwDQYJKoZIhvcNAQEL
BQAwRjEPMA0GA1UECgwGSGFzc09TMTMwMQYDVQQDDCpIYXNzT1MgU2VsZi1zaWdu
ZWQgRGV2ZWxvcG1lbnQgQ2VydGlmaWNhdGUwHhcNMjUwNjE5MTI1NjA5WhcNMzUw
NjE3MTI1NjA5WjBGMQ8wDQYDVQQKDAZIYXNzT1MxMzAxBgNVBAMMKkhhc3NPUyBT
ZWxmLXNpZ25lZCBEZXZlbG9wbWVudCBDZXJ0aWZpY2F0ZTCCAiIwDQYJKoZIhvcN
AQEBBQADggIPADCCAgoCggIBAMeHbVxXWzjds+Hm80/WyvuOdsnIfcRLN5W6Qqhz
mkC9dxv2clLZn2jWHY+8+0xI/ChQwnj0NOglGeW4TLrtqeBnszbx1QH8CrGpv3RD
BtO20DzI1Zi/5C95esDfxdD7ookln2nlvOIUXGdt5rIqqaSOE3/LKJwF0Zo/SRAK
ldMIs3ieA86S4b3wNA7D5kBSGaj/j6/cXs9XU/3Z5mxntdzwQlzBKd6k7dZw1ONJ
9KdpQZk/LyJd7mQwLLJ+QpZvYGkiURlDsyni5cIt6xTZwxdGV6RZeB8e9+ug98PE
5NjLDD476O7Zl3Jp04jftnSkTbJVuhrniXGqjRV66MFYGKH/DLUr0gRyeqXdUfh5
XIQJpJ1EXVSxvnWnGaz2Kc8GN8muo5t9QMIxQSZh0BTCZNVTy9sFDNBsXs9tVORA
BqBTdyk364FYDEpHXDuTaKLIzxBc8tSR7tT36ilCE84uQgz5hKL99XM+ovGnwY+x
QU3TynmE8ptdx2Mr3OqN+e3FVDiL3oHm7zh5Pg+j8o3YuHsFC4Tu11VhTxCHsxcg
1ywYnLK1vnnS7ZBmq+6eTsRaNksEGmW3e98u2aLJwJz8kjk3qDCaZvUAKczG3zGP
9zRAk4zOlp50K/93Frq8OiqM5q3gesAmhKIeA2dBmYM11NFF2mH9WMsxRF4jquP/
S551AgMBAAGjUzBRMB0GA1UdDgQWBBTT5F5wEZ/awpudHcBfF//srLXOyzAfBgNV
HSMEGDAWgBTT5F5wEZ/awpudHcBfF//srLXOyzAPBgNVHRMBAf8EBTADAQH/MA0G
CSqGSIb3DQEBCwUAA4ICAQBMdL9evGALt0ykzQNP9ZwdesppngfGW0ybPIEMPE73
R4NLOR2+VjP74CP0D3JXLKywV1rLK71lskQ3MPgGZxXDIRU0U+VLrV1Z2bg9y1OS
TeeAfyo+ENHswXDK47VRc4kGv1Cug54U7JtAl/YQfCFLJ26Q+mThzJz1kMQGyl4L
SZrKtrkAtgzmmsqt+tmM9SS3vA1w/7N4cKGXgz6TysmxJsElzUGWym94NDnUMwfC
vCCwoLbkJ6lkxvCLXfRBljJ6+rOoj25t2e9JY8OTUPiJViIbeCzyv/gBpRdVITON
+zFETkEiZU15DUhLWwd9HOgW3L+yjUTsvNQPJ8zsh6mG7CsMpvQ0AONFEe3wpcIW
YQz1xb763u+y4A4vANOxIrz5qkZfTswcGBGnT7onL+95knxkYiZ7BX39GfhvOlEn
jK4n41c9JvpjS9HEgmtXaGg6za1iK7fnYTk6BF7yEz0c7bI1/B/0auUfxlADMA2o
g5F5SGjpJBaI6ngQJoLDwmDFxWPn8G0GJSFq5++LMB73m/WkfXH9iXbZ5xMsSN7f
Ghio7lFkJDeK3DKUWSI4cY6hi9wrRoxsirgzC7rgMMpQ5KqT5Wj/ACW6l5hExMoA
CpC53xW3EUHtFBxS1Pxz5zjHWxURI11cGfVJihXju509xhKa7VmZvPFwx7BMig+J
6A==
-----END CERTIFICATE-----
